target datalayout = "e-m:e-p270:32:32-p271:32:32-p272:64:64-i64:64-i128:128-f80:128-n8:16:32:64-S128"
target triple = "x86_64-pc-linux-gnu"

@.str.53 = private unnamed_addr constant [50 x i8] c"\0AUSAGE: %s [options] <Input image> <JPEG image>\0A\0A\00", align 1
@.str.54 = private unnamed_addr constant [69 x i8] c"The input image can be in Windows BMP or PBMPLUS (PPM/PGM) format.\0A\0A\00", align 1
@.str.55 = private unnamed_addr constant [38 x i8] c"GENERAL OPTIONS (CAN BE ABBREVIATED)\0A\00", align 1
@.str.56 = private unnamed_addr constant [38 x i8] c"------------------------------------\0A\00", align 1
@.str.57 = private unnamed_addr constant [11 x i8] c"-icc FILE\0A\00", align 1
@.str.58 = private unnamed_addr constant [77 x i8] c"    Embed the ICC (International Color Consortium) color management profile\0A\00", align 1
@.str.59 = private unnamed_addr constant [49 x i8] c"    from the specified file into the JPEG image\0A\00", align 1
@.str.60 = private unnamed_addr constant [20 x i8] c"-lossless PSV[,Pt]\0A\00", align 1
@.str.61 = private unnamed_addr constant [73 x i8] c"    Create a lossless JPEG image (implies -subsamp 444) using predictor\0A\00", align 1
@.str.62 = private unnamed_addr constant [74 x i8] c"    selection value PSV (1-7) and optional point transform Pt (0 through\0A\00", align 1
@.str.63 = private unnamed_addr constant [27 x i8] c"    {data precision} - 1)\0A\00", align 1
@.str.64 = private unnamed_addr constant [14 x i8] c"-maxmemory N\0A\00", align 1
@.str.65 = private unnamed_addr constant [80 x i8] c"    Memory limit (in megabytes) for intermediate buffers used with progressive\0A\00", align 1
@.str.66 = private unnamed_addr constant [81 x i8] c"    JPEG compression, lossless JPEG compression, and Huffman table optimization\0A\00", align 1
@.str.67 = private unnamed_addr constant [26 x i8] c"    [default = no limit]\0A\00", align 1
@.str.68 = private unnamed_addr constant [14 x i8] c"-precision N\0A\00", align 1
@.str.69 = private unnamed_addr constant [81 x i8] c"    Create a JPEG image with N-bit data precision [N = 2..16; default = 8; if N\0A\00", align 1
@.str.70 = private unnamed_addr constant [75 x i8] c"    is not 8 or 12, then -lossless must also be specified] (-precision 12\0A\00", align 1
@.str.71 = private unnamed_addr constant [61 x i8] c"    implies -optimize unless -arithmetic is also specified)\0A\00", align 1
@.str.72 = private unnamed_addr constant [12 x i8] c"-restart N\0A\00", align 1
@.str.73 = private unnamed_addr constant [79 x i8] c"    Add a restart marker every N MCU rows [default = 0 (no restart markers)].\0A\00", align 1
@.str.74 = private unnamed_addr constant [78 x i8] c"    Append 'B' to specify the restart marker interval in MCUs (lossy only.)\0A\0A\00", align 1
@.str.75 = private unnamed_addr constant [41 x i8] c"LOSSY JPEG OPTIONS (CAN BE ABBREVIATED)\0A\00", align 1
@.str.76 = private unnamed_addr constant [41 x i8] c"---------------------------------------\0A\00", align 1
@.str.77 = private unnamed_addr constant [13 x i8] c"-arithmetic\0A\00", align 1
@.str.78 = private unnamed_addr constant [77 x i8] c"    Use arithmetic entropy coding instead of Huffman entropy coding (can be\0A\00", align 1
@.str.79 = private unnamed_addr constant [33 x i8] c"    combined with -progressive)\0A\00", align 1
@.str.80 = private unnamed_addr constant [11 x i8] c"-dct fast\0A\00", align 1
@.str.81 = private unnamed_addr constant [54 x i8] c"    Use less accurate DCT algorithm [legacy feature]\0A\00", align 1
@.str.82 = private unnamed_addr constant [10 x i8] c"-dct int\0A\00", align 1
@.str.83 = private unnamed_addr constant [47 x i8] c"    Use more accurate DCT algorithm [default]\0A\00", align 1
@.str.84 = private unnamed_addr constant [12 x i8] c"-grayscale\0A\00", align 1
@.str.85 = private unnamed_addr constant [65 x i8] c"    Create a grayscale JPEG image from a full-color input image\0A\00", align 1
@.str.86 = private unnamed_addr constant [11 x i8] c"-optimize\0A\00", align 1
@.str.87 = private unnamed_addr constant [36 x i8] c"    Use Huffman table optimization\0A\00", align 1
@.str.88 = private unnamed_addr constant [14 x i8] c"-progressive\0A\00", align 1
@.str.89 = private unnamed_addr constant [81 x i8] c"    Create a progressive JPEG image instead of a single-scan JPEG image (can be\0A\00", align 1
@.str.90 = private unnamed_addr constant [77 x i8] c"    combined with -arithmetic; implies -optimize unless -arithmetic is also\0A\00", align 1
@.str.91 = private unnamed_addr constant [16 x i8] c"    specified)\0A\00", align 1
@.str.92 = private unnamed_addr constant [19 x i8] c"-quality {1..100}\0A\00", align 1
@.str.93 = private unnamed_addr constant [73 x i8] c"    Create a JPEG image with the specified quality level [default = %d]\0A\00", align 1
@.str.94 = private unnamed_addr constant [6 x i8] c"-rgb\0A\00", align 1
@.str.95 = private unnamed_addr constant [75 x i8] c"    Create a JPEG image that uses the RGB colorspace instead of the YCbCr\0A\00", align 1
@.str.96 = private unnamed_addr constant [16 x i8] c"    colorspace\0A\00", align 1
@.str.97 = private unnamed_addr constant [36 x i8] c"-subsamp {444|422|440|420|411|441}\0A\00", align 1
@.str.98 = private unnamed_addr constant [79 x i8] c"    Create a JPEG image that uses the specified chrominance subsampling level\0A\00", align 1
@.str.99 = private unnamed_addr constant [21 x i8] c"    [default = %s]\0A\0A\00", align 1
@subsampName = internal global [7 x ptr] [ptr @.str.19, ptr @.str.20, ptr @.str.22, ptr @.str.100, ptr @.str.21, ptr @.str.23, ptr @.str.24], align 16

; Function Attrs: nounwind uwtable
define internal void @usage(ptr noundef %0) #0 {
  %2 = alloca ptr, align 8
  store ptr %0, ptr %2, align 8, !tbaa !11
  %3 = load ptr, ptr %2, align 8, !tbaa !11
  %4 = call i32 (ptr, ...) @printf(ptr noundef @.str.53, ptr noundef %3)
  %5 = call i32 (ptr, ...) @printf(ptr noundef @.str.54)
  %6 = call i32 (ptr, ...) @printf(ptr noundef @.str.55)
  %7 = call i32 (ptr, ...) @printf(ptr noundef @.str.56)
  %8 = call i32 (ptr, ...) @printf(ptr noundef @.str.57)
  %9 = call i32 (ptr, ...) @printf(ptr noundef @.str.58)
  %10 = call i32 (ptr, ...) @printf(ptr noundef @.str.59)
  %11 = call i32 (ptr, ...) @printf(ptr noundef @.str.60)
  %12 = call i32 (ptr, ...) @printf(ptr noundef @.str.61)
  %13 = call i32 (ptr, ...) @printf(ptr noundef @.str.62)
  %14 = call i32 (ptr, ...) @printf(ptr noundef @.str.63)
  %15 = call i32 (ptr, ...) @printf(ptr noundef @.str.64)
  %16 = call i32 (ptr, ...) @printf(ptr noundef @.str.65)
  %17 = call i32 (ptr, ...) @printf(ptr noundef @.str.66)
  %18 = call i32 (ptr, ...) @printf(ptr noundef @.str.67)
  %19 = call i32 (ptr, ...) @printf(ptr noundef @.str.68)
  %20 = call i32 (ptr, ...) @printf(ptr noundef @.str.69)
  %21 = call i32 (ptr, ...) @printf(ptr noundef @.str.70)
  %22 = call i32 (ptr, ...) @printf(ptr noundef @.str.71)
  %23 = call i32 (ptr, ...) @printf(ptr noundef @.str.72)
  %24 = call i32 (ptr, ...) @printf(ptr noundef @.str.73)
  %25 = call i32 (ptr, ...) @printf(ptr noundef @.str.74)
  %26 = call i32 (ptr, ...) @printf(ptr noundef @.str.75)
  %27 = call i32 (ptr, ...) @printf(ptr noundef @.str.76)
  %28 = call i32 (ptr, ...) @printf(ptr noundef @.str.77)
  %29 = call i32 (ptr, ...) @printf(ptr noundef @.str.78)
  %30 = call i32 (ptr, ...) @printf(ptr noundef @.str.79)
  %31 = call i32 (ptr, ...) @printf(ptr noundef @.str.80)
  %32 = call i32 (ptr, ...) @printf(ptr noundef @.str.81)
  %33 = call i32 (ptr, ...) @printf(ptr noundef @.str.82)
  %34 = call i32 (ptr, ...) @printf(ptr noundef @.str.83)
  %35 = call i32 (ptr, ...) @printf(ptr noundef @.str.84)
  %36 = call i32 (ptr, ...) @printf(ptr noundef @.str.85)
  %37 = call i32 (ptr, ...) @printf(ptr noundef @.str.86)
  %38 = call i32 (ptr, ...) @printf(ptr noundef @.str.87)
  %39 = call i32 (ptr, ...) @printf(ptr noundef @.str.88)
  %40 = call i32 (ptr, ...) @printf(ptr noundef @.str.89)
  %41 = call i32 (ptr, ...) @printf(ptr noundef @.str.90)
  %42 = call i32 (ptr, ...) @printf(ptr noundef @.str.91)
  %43 = call i32 (ptr, ...) @printf(ptr noundef @.str.92)
  %44 = call i32 (ptr, ...) @printf(ptr noundef @.str.93, i32 noundef 75)
  %45 = call i32 (ptr, ...) @printf(ptr noundef @.str.94)
  %46 = call i32 (ptr, ...) @printf(ptr noundef @.str.95)
  %47 = call i32 (ptr, ...) @printf(ptr noundef @.str.96)
  %48 = call i32 (ptr, ...) @printf(ptr noundef @.str.97)
  %49 = call i32 (ptr, ...) @printf(ptr noundef @.str.98)
  %50 = load ptr, ptr getelementptr inbounds ([7 x ptr], ptr @subsampName, i64 0, i64 2), align 16, !tbaa !11
  %51 = call i32 (ptr, ...) @printf(ptr noundef @.str.99, ptr noundef %50)
  call void @exit(i32 noundef 1) #13
  unreachable
}