; Function Attrs: cold nofree noreturn nounwind uwtable
define internal fastcc void @usage(ptr noundef %0) unnamed_addr #4 {
  %2 = tail call i32 (ptr, ...) @printf(ptr noundef nonnull dereferenceable(1) @.str.53, ptr noundef %0)
  %puts = tail call i32 @puts(ptr nonnull dereferenceable(1) @str)
  %puts1 = tail call i32 @puts(ptr nonnull dereferenceable(1) @str.1)
  %puts2 = tail call i32 @puts(ptr nonnull dereferenceable(1) @str.2)
  %puts3 = tail call i32 @puts(ptr nonnull dereferenceable(1) @str.3)
  %puts4 = tail call i32 @puts(ptr nonnull dereferenceable(1) @str.4)
  %puts5 = tail call i32 @puts(ptr nonnull dereferenceable(1) @str.5)
  %puts6 = tail call i32 @puts(ptr nonnull dereferenceable(1) @str.6)
  %puts7 = tail call i32 @puts(ptr nonnull dereferenceable(1) @str.7)
  %puts8 = tail call i32 @puts(ptr nonnull dereferenceable(1) @str.8)
  %puts9 = tail call i32 @puts(ptr nonnull dereferenceable(1) @str.9)
  %puts10 = tail call i32 @puts(ptr nonnull dereferenceable(1) @str.10)
  %puts11 = tail call i32 @puts(ptr nonnull dereferenceable(1) @str.11)
  %puts12 = tail call i32 @puts(ptr nonnull dereferenceable(1) @str.12)
  %puts13 = tail call i32 @puts(ptr nonnull dereferenceable(1) @str.13)
  %puts14 = tail call i32 @puts(ptr nonnull dereferenceable(1) @str.14)
  %puts15 = tail call i32 @puts(ptr nonnull dereferenceable(1) @str.15)
  %puts16 = tail call i32 @puts(ptr nonnull dereferenceable(1) @str.16)
  %puts17 = tail call i32 @puts(ptr nonnull dereferenceable(1) @str.17)
  %puts18 = tail call i32 @puts(ptr nonnull dereferenceable(1) @str.18)
  %puts19 = tail call i32 @puts(ptr nonnull dereferenceable(1) @str.19)
  %puts20 = tail call i32 @puts(ptr nonnull dereferenceable(1) @str.20)
  %puts21 = tail call i32 @puts(ptr nonnull dereferenceable(1) @str.21)
  %puts22 = tail call i32 @puts(ptr nonnull dereferenceable(1) @str.22)
  %puts23 = tail call i32 @puts(ptr nonnull dereferenceable(1) @str.23)
  %puts24 = tail call i32 @puts(ptr nonnull dereferenceable(1) @str.24)
  %puts25 = tail call i32 @puts(ptr nonnull dereferenceable(1) @str.25)
  %puts26 = tail call i32 @puts(ptr nonnull dereferenceable(1) @str.26)
  %puts27 = tail call i32 @puts(ptr nonnull dereferenceable(1) @str.27)
  %puts28 = tail call i32 @puts(ptr nonnull dereferenceable(1) @str.28)
  %puts29 = tail call i32 @puts(ptr nonnull dereferenceable(1) @str.29)
  %puts30 = tail call i32 @puts(ptr nonnull dereferenceable(1) @str.30)
  %puts31 = tail call i32 @puts(ptr nonnull dereferenceable(1) @str.31)
  %puts32 = tail call i32 @puts(ptr nonnull dereferenceable(1) @str.32)
  %puts33 = tail call i32 @puts(ptr nonnull dereferenceable(1) @str.33)
  %puts34 = tail call i32 @puts(ptr nonnull dereferenceable(1) @str.34)
  %puts35 = tail call i32 @puts(ptr nonnull dereferenceable(1) @str.35)
  %puts36 = tail call i32 @puts(ptr nonnull dereferenceable(1) @str.36)
  %puts37 = tail call i32 @puts(ptr nonnull dereferenceable(1) @str.37)
  %puts38 = tail call i32 @puts(ptr nonnull dereferenceable(1) @str.38)
  %3 = tail call i32 (ptr, ...) @printf(ptr noundef nonnull dereferenceable(1) @.str.93, i32 noundef 75)
  %puts39 = tail call i32 @puts(ptr nonnull dereferenceable(1) @str.39)
  %puts40 = tail call i32 @puts(ptr nonnull dereferenceable(1) @str.40)
  %puts41 = tail call i32 @puts(ptr nonnull dereferenceable(1) @str.41)
  %puts42 = tail call i32 @puts(ptr nonnull dereferenceable(1) @str.42)
  %puts43 = tail call i32 @puts(ptr nonnull dereferenceable(1) @str.43)
  %4 = tail call i32 (ptr, ...) @printf(ptr noundef nonnull dereferenceable(1) @.str.99, ptr noundef nonnull @.str.22)
  tail call void @exit(i32 noundef 1) #19
  unreachable
}